; ModuleID = 'source-C-CXX/3/504.cpp'
source_filename = "source-C-CXX/3/504.cpp"
target datalayout = "e-m:e-p270:32:32-p271:32:32-p272:64:64-i64:64-f80:128-n8:16:32:64-S128"
target triple = "x86_64-pc-linux-gnu"

%"class.std::ios_base::Init" = type { i8 }
%"class.std::basic_istream" = type { i32 (...)**, i64, %"class.std::basic_ios" }
%"class.std::basic_ios" = type { %"class.std::ios_base", %"class.std::basic_ostream"*, i8, i8, %"class.std::basic_streambuf"*, %"class.std::ctype"*, %"class.std::num_put"*, %"class.std::num_get"* }
%"class.std::ios_base" = type { i32 (...)**, i64, i64, i32, i32, i32, %"struct.std::ios_base::_Callback_list"*, %"struct.std::ios_base::_Words", [8 x %"struct.std::ios_base::_Words"], i32, %"struct.std::ios_base::_Words"*, %"class.std::locale" }
%"struct.std::ios_base::_Callback_list" = type { %"struct.std::ios_base::_Callback_list"*, void (i32, %"class.std::ios_base"*, i32)*, i32, i32 }
%"struct.std::ios_base::_Words" = type { i8*, i64 }
%"class.std::locale" = type { %"class.std::locale::_Impl"* }
%"class.std::locale::_Impl" = type { i32, %"class.std::locale::facet"**, i64, %"class.std::locale::facet"**, i8** }
%"class.std::locale::facet" = type <{ i32 (...)**, i32, [4 x i8] }>
%"class.std::basic_ostream" = type { i32 (...)**, %"class.std::basic_ios" }
%"class.std::basic_streambuf" = type { i32 (...)**, i8*, i8*, i8*, i8*, i8*, i8*, %"class.std::locale" }
%"class.std::ctype" = type <{ %"class.std::locale::facet.base", [4 x i8], %struct.__locale_struct*, i8, [7 x i8], i32*, i32*, i16*, i8, [256 x i8], [256 x i8], i8, [6 x i8] }>
%"class.std::locale::facet.base" = type <{ i32 (...)**, i32 }>
%struct.__locale_struct = type { [13 x %struct.__locale_data*], i16*, i32*, i32*, [13 x i8*] }
%struct.__locale_data = type opaque
%"class.std::num_put" = type { %"class.std::locale::facet.base", [4 x i8] }
%"class.std::num_get" = type { %"class.std::locale::facet.base", [4 x i8] }

@_ZStL8__ioinit = internal global %"class.std::ios_base::Init" zeroinitializer, align 1
@__dso_handle = external hidden global i8
@_ZSt3cin = external global %"class.std::basic_istream", align 8
@_ZSt4cout = external global %"class.std::basic_ostream", align 8
@llvm.global_ctors = appending global [1 x { i32, void ()*, i8* }] [{ i32, void ()*, i8* } { i32 65535, void ()* @_GLOBAL__sub_I_504.cpp, i8* null }]

declare void @_ZNSt8ios_base4InitC1Ev(%"class.std::ios_base::Init"* nonnull align 1 dereferenceable(1)) unnamed_addr #0

; Function Attrs: nounwind
declare void @_ZNSt8ios_base4InitD1Ev(%"class.std::ios_base::Init"* nonnull align 1 dereferenceable(1)) unnamed_addr #1

; Function Attrs: nofree nounwind
declare i32 @__cxa_atexit(void (i8*)*, i8*, i8*) local_unnamed_addr #2

; Function Attrs: mustprogress norecurse sspstrong uwtable
define dso_local i32 @main() local_unnamed_addr #3 {
  %1 = alloca i32, align 4
  %2 = alloca i32, align 4
  %3 = alloca [100 x [100 x i32]], align 16
  %4 = bitcast i32* %1 to i8*
  call void @llvm.lifetime.start.p0i8(i64 4, i8* nonnull %4) #7
  %5 = bitcast i32* %2 to i8*
  call void @llvm.lifetime.start.p0i8(i64 4, i8* nonnull %5) #7
  %6 = bitcast [100 x [100 x i32]]* %3 to i8*
  call void @llvm.lifetime.start.p0i8(i64 40000, i8* nonnull %6) #7
  %7 = call nonnull align 8 dereferenceable(16) %"class.std::basic_istream"* @_ZNSirsERi(%"class.std::basic_istream"* nonnull align 8 dereferenceable(16) @_ZSt3cin, i32* nonnull align 4 dereferenceable(4) %1)
  %8 = call nonnull align 8 dereferenceable(16) %"class.std::basic_istream"* @_ZNSirsERi(%"class.std::basic_istream"* nonnull align 8 dereferenceable(16) %7, i32* nonnull align 4 dereferenceable(4) %2)
  %9 = load i32, i32* %1, align 4, !tbaa !5
  %10 = icmp sgt i32 %9, 0
  %11 = load i32, i32* %2, align 4, !tbaa !5
  %12 = icmp sgt i32 %11, 0
  %13 = select i1 %10, i1 %12, i1 false
  br i1 %13, label %14, label %19

14:                                               ; preds = %0, %35
  %15 = phi i32 [ %36, %35 ], [ %9, %0 ]
  %16 = phi i32 [ %37, %35 ], [ %11, %0 ]
  %17 = phi i64 [ %38, %35 ], [ 0, %0 ]
  %18 = icmp sgt i32 %16, 0
  br i1 %18, label %25, label %35

19:                                               ; preds = %35, %0
  %20 = phi i32 [ %9, %0 ], [ %36, %35 ]
  %21 = phi i32 [ %11, %0 ], [ %37, %35 ]
  %22 = add i32 %21, -2
  %23 = add i32 %22, %20
  %24 = icmp slt i32 %23, 0
  br i1 %24, label %107, label %41

25:                                               ; preds = %14, %25
  %26 = phi i64 [ %29, %25 ], [ 0, %14 ]
  %27 = getelementptr inbounds [100 x [100 x i32]], [100 x [100 x i32]]* %3, i64 0, i64 %17, i64 %26
  %28 = call nonnull align 8 dereferenceable(16) %"class.std::basic_istream"* @_ZNSirsERi(%"class.std::basic_istream"* nonnull align 8 dereferenceable(16) @_ZSt3cin, i32* nonnull align 4 dereferenceable(4) %27)
  %29 = add nuw nsw i64 %26, 1
  %30 = load i32, i32* %2, align 4, !tbaa !5
  %31 = sext i32 %30 to i64
  %32 = icmp slt i64 %29, %31
  br i1 %32, label %25, label %33, !llvm.loop !9

33:                                               ; preds = %25
  %34 = load i32, i32* %1, align 4, !tbaa !5
  br label %35

35:                                               ; preds = %33, %14
  %36 = phi i32 [ %34, %33 ], [ %15, %14 ]
  %37 = phi i32 [ %30, %33 ], [ %16, %14 ]
  %38 = add nuw nsw i64 %17, 1
  %39 = sext i32 %36 to i64
  %40 = icmp slt i64 %38, %39
  br i1 %40, label %14, label %19, !llvm.loop !11

41:                                               ; preds = %19, %98
  %42 = phi i32 [ %100, %98 ], [ %21, %19 ]
  %43 = phi i32 [ %101, %98 ], [ %20, %19 ]
  %44 = phi i64 [ %99, %98 ], [ 0, %19 ]
  %45 = phi i64 [ %106, %98 ], [ 1, %19 ]
  br label %46

46:                                               ; preds = %95, %41
  %47 = phi i32 [ %42, %41 ], [ %97, %95 ]
  %48 = phi i32 [ %43, %41 ], [ %96, %95 ]
  %49 = phi i64 [ 0, %41 ], [ %93, %95 ]
  %50 = sub nsw i64 %44, %49
  %51 = sext i32 %48 to i64
  %52 = icmp slt i64 %49, %51
  %53 = icmp sgt i64 %50, -1
  %54 = select i1 %52, i1 %53, i1 false
  %55 = sext i32 %47 to i64
  %56 = icmp slt i64 %50, %55
  %57 = select i1 %54, i1 %56, i1 false
  br i1 %57, label %58, label %92

58:                                               ; preds = %46
  %59 = and i64 %50, 4294967295
  %60 = getelementptr inbounds [100 x [100 x i32]], [100 x [100 x i32]]* %3, i64 0, i64 %49, i64 %59
  %61 = load i32, i32* %60, align 4, !tbaa !5
  %62 = call nonnull align 8 dereferenceable(8) %"class.std::basic_ostream"* @_ZNSolsEi(%"class.std::basic_ostream"* nonnull align 8 dereferenceable(8) @_ZSt4cout, i32 %61)
  %63 = bitcast %"class.std::basic_ostream"* %62 to i8**
  %64 = load i8*, i8** %63, align 8, !tbaa !13
  %65 = getelementptr i8, i8* %64, i64 -24
  %66 = bitcast i8* %65 to i64*
  %67 = load i64, i64* %66, align 8
  %68 = bitcast %"class.std::basic_ostream"* %62 to i8*
  %69 = add nsw i64 %67, 240
  %70 = getelementptr inbounds i8, i8* %68, i64 %69
  %71 = bitcast i8* %70 to %"class.std::ctype"**
  %72 = load %"class.std::ctype"*, %"class.std::ctype"** %71, align 8, !tbaa !15
  %73 = icmp eq %"class.std::ctype"* %72, null
  br i1 %73, label %74, label %75

74:                                               ; preds = %58
  call void @_ZSt16__throw_bad_castv() #8
  unreachable

75:                                               ; preds = %58
  %76 = getelementptr inbounds %"class.std::ctype", %"class.std::ctype"* %72, i64 0, i32 8
  %77 = load i8, i8* %76, align 8, !tbaa !19
  %78 = icmp eq i8 %77, 0
  br i1 %78, label %82, label %79

79:                                               ; preds = %75
  %80 = getelementptr inbounds %"class.std::ctype", %"class.std::ctype"* %72, i64 0, i32 9, i64 10
  %81 = load i8, i8* %80, align 1, !tbaa !21
  br label %88

82:                                               ; preds = %75
  call void @_ZNKSt5ctypeIcE13_M_widen_initEv(%"class.std::ctype"* nonnull align 8 dereferenceable(570) %72)
  %83 = bitcast %"class.std::ctype"* %72 to i8 (%"class.std::ctype"*, i8)***
  %84 = load i8 (%"class.std::ctype"*, i8)**, i8 (%"class.std::ctype"*, i8)*** %83, align 8, !tbaa !13
  %85 = getelementptr inbounds i8 (%"class.std::ctype"*, i8)*, i8 (%"class.std::ctype"*, i8)** %84, i64 6
  %86 = load i8 (%"class.std::ctype"*, i8)*, i8 (%"class.std::ctype"*, i8)** %85, align 8
  %87 = call signext i8 %86(%"class.std::ctype"* nonnull align 8 dereferenceable(570) %72, i8 signext 10)
  br label %88

88:                                               ; preds = %79, %82
  %89 = phi i8 [ %81, %79 ], [ %87, %82 ]
  %90 = call nonnull align 8 dereferenceable(8) %"class.std::basic_ostream"* @_ZNSo3putEc(%"class.std::basic_ostream"* nonnull align 8 dereferenceable(8) %62, i8 signext %89)
  %91 = call nonnull align 8 dereferenceable(8) %"class.std::basic_ostream"* @_ZNSo5flushEv(%"class.std::basic_ostream"* nonnull align 8 dereferenceable(8) %90)
  br label %92

92:                                               ; preds = %46, %88
  %93 = add nuw nsw i64 %49, 1
  %94 = icmp eq i64 %93, %45
  br i1 %94, label %98, label %95, !llvm.loop !22

95:                                               ; preds = %92
  %96 = load i32, i32* %1, align 4, !tbaa !5
  %97 = load i32, i32* %2, align 4
  br label %46

98:                                               ; preds = %92
  %99 = add nuw nsw i64 %44, 1
  %100 = load i32, i32* %2, align 4, !tbaa !5
  %101 = load i32, i32* %1, align 4, !tbaa !5
  %102 = add i32 %100, -2
  %103 = add i32 %102, %101
  %104 = sext i32 %103 to i64
  %105 = icmp slt i64 %44, %104
  %106 = add nuw nsw i64 %45, 1
  br i1 %105, label %41, label %107, !llvm.loop !23

107:                                              ; preds = %98, %19
  call void @llvm.lifetime.end.p0i8(i64 40000, i8* nonnull %6) #7
  call void @llvm.lifetime.end.p0i8(i64 4, i8* nonnull %5) #7
  call void @llvm.lifetime.end.p0i8(i64 4, i8* nonnull %4) #7
  ret i32 0
}

; Function Attrs: argmemonly mustprogress nofree nosync nounwind willreturn
declare void @llvm.lifetime.start.p0i8(i64 immarg, i8* nocapture) #4

declare nonnull align 8 dereferenceable(16) %"class.std::basic_istream"* @_ZNSirsERi(%"class.std::basic_istream"* nonnull align 8 dereferenceable(16), i32* nonnull align 4 dereferenceable(4)) local_unnamed_addr #0

declare nonnull align 8 dereferenceable(8) %"class.std::basic_ostream"* @_ZNSolsEi(%"class.std::basic_ostream"* nonnull align 8 dereferenceable(8), i32) local_unnamed_addr #0

; Function Attrs: argmemonly mustprogress nofree nosync nounwind willreturn
declare void @llvm.lifetime.end.p0i8(i64 immarg, i8* nocapture) #4

declare nonnull align 8 dereferenceable(8) %"class.std::basic_ostream"* @_ZNSo3putEc(%"class.std::basic_ostream"* nonnull align 8 dereferenceable(8), i8 signext) local_unnamed_addr #0

declare nonnull align 8 dereferenceable(8) %"class.std::basic_ostream"* @_ZNSo5flushEv(%"class.std::basic_ostream"* nonnull align 8 dereferenceable(8)) local_unnamed_addr #0

; Function Attrs: noreturn
declare void @_ZSt16__throw_bad_castv() local_unnamed_addr #5

declare void @_ZNKSt5ctypeIcE13_M_widen_initEv(%"class.std::ctype"* nonnull align 8 dereferenceable(570)) local_unnamed_addr #0

; Function Attrs: sspstrong uwtable
define internal void @_GLOBAL__sub_I_504.cpp() #6 section ".text.startup" {
  tail call void @_ZNSt8ios_base4InitC1Ev(%"class.std::ios_base::Init"* nonnull align 1 dereferenceable(1) @_ZStL8__ioinit)
  %1 = tail call i32 @__cxa_atexit(void (i8*)* bitcast (void (%"class.std::ios_base::Init"*)* @_ZNSt8ios_base4InitD1Ev to void (i8*)*), i8* getelementptr inbounds (%"class.std::ios_base::Init", %"class.std::ios_base::Init"* @_ZStL8__ioinit, i64 0, i32 0), i8* nonnull @__dso_handle) #7
  ret void
}


!llvm.module.flags = !{!0, !1, !2, !3}
!llvm.ident = !{!4}

!0 = !{i32 1, !"wchar_size", i32 4}
!1 = !{i32 7, !"PIC Level", i32 2}
!2 = !{i32 7, !"PIE Level", i32 2}
!3 = !{i32 7, !"uwtable", i32 1}
!4 = !{!"clang version 13.0.0"}
!5 = !{!6, !6, i64 0}
!6 = !{!"int", !7, i64 0}
!7 = !{!"omnipotent char", !8, i64 0}
!8 = !{!"Simple C++ TBAA"}
!9 = distinct !{!9, !10}
!10 = !{!"llvm.loop.mustprogress"}
!11 = distinct !{!11, !10, !12}
!12 = !{!"llvm.loop.unswitch.partial.disable"}
!13 = !{!14, !14, i64 0}
!14 = !{!"vtable pointer", !8, i64 0}
!15 = !{!16, !17, i64 240}
!16 = !{!"_ZTSSt9basic_iosIcSt11char_traitsIcEE", !17, i64 216, !7, i64 224, !18, i64 225, !17, i64 232, !17, i64 240, !17, i64 248, !17, i64 256}
!17 = !{!"any pointer", !7, i64 0}
!18 = !{!"bool", !7, i64 0}
!19 = !{!20, !7, i64 56}
!20 = !{!"_ZTSSt5ctypeIcE", !17, i64 16, !18, i64 24, !17, i64 32, !17, i64 40, !17, i64 48, !7, i64 56, !7, i64 57, !7, i64 313, !7, i64 569}
!21 = !{!7, !7, i64 0}
!22 = distinct !{!22, !10}
!23 = distinct !{!23, !10}
